target datalayout = "e-m:e-p270:32:32-p271:32:32-p272:64:64-i64:64-i128:128-f80:128-n8:16:32:64-S128"
target triple = "x86_64-pc-linux-gnu"

@.str.231 = private unnamed_addr constant [11 x i8] c"/* XPM */\0A\00", align 1
@.str.232 = private unnamed_addr constant [71 x i8] c"/* This file can be converted to EPS by the GROMACS program xpm2ps */\0A\00", align 1
@.str.233 = private unnamed_addr constant [21 x i8] c"/* title:   \22%s\22 */\0A\00", align 1
@.str.234 = private unnamed_addr constant [21 x i8] c"/* legend:  \22%s\22 */\0A\00", align 1
@.str.235 = private unnamed_addr constant [21 x i8] c"/* x-label: \22%s\22 */\0A\00", align 1
@.str.236 = private unnamed_addr constant [21 x i8] c"/* y-label: \22%s\22 */\0A\00", align 1
@.str.237 = private unnamed_addr constant [27 x i8] c"/* type:    \22Discrete\22 */\0A\00", align 1
@.str.238 = private unnamed_addr constant [29 x i8] c"/* type:    \22Continuous\22 */\0A\00", align 1

; Function Attrs: mustprogress nounwind uwtable
define internal void @_ZL16write_xpm_headerP8_IO_FILERKNSt7__cxx1112basic_stringIcSt11char_traitsIcESaIcEEES8_S8_S8_b(ptr noundef %0, ptr noundef nonnull align 8 dereferenceable(32) %1, ptr noundef nonnull align 8 dereferenceable(32) %2, ptr noundef nonnull align 8 dereferenceable(32) %3, ptr noundef nonnull align 8 dereferenceable(32) %4, i1 noundef zeroext %5) #2 {
  %7 = alloca ptr, align 8
  %8 = alloca ptr, align 8
  %9 = alloca ptr, align 8
  %10 = alloca ptr, align 8
  %11 = alloca ptr, align 8
  %12 = alloca i8, align 1
  store ptr %0, ptr %7, align 8
  store ptr %1, ptr %8, align 8
  store ptr %2, ptr %9, align 8
  store ptr %3, ptr %10, align 8
  store ptr %4, ptr %11, align 8
  %13 = zext i1 %5 to i8
  store i8 %13, ptr %12, align 1
  %14 = load ptr, ptr %7, align 8
  %15 = call i32 (ptr, ptr, ...) @fprintf(ptr noundef %14, ptr noundef @.str.231) #14
  %16 = load ptr, ptr %7, align 8
  %17 = call i32 (ptr, ptr, ...) @fprintf(ptr noundef %16, ptr noundef @.str.232) #14
  %18 = load ptr, ptr %7, align 8
  %19 = load ptr, ptr %8, align 8
  %20 = call noundef ptr @_ZNKSt7__cxx1112basic_stringIcSt11char_traitsIcESaIcEE5c_strEv(ptr noundef nonnull align 8 dereferenceable(32) %19) #14
  %21 = call i32 (ptr, ptr, ...) @fprintf(ptr noundef %18, ptr noundef @.str.233, ptr noundef %20) #14
  %22 = load ptr, ptr %7, align 8
  %23 = load ptr, ptr %9, align 8
  %24 = call noundef ptr @_ZNKSt7__cxx1112basic_stringIcSt11char_traitsIcESaIcEE5c_strEv(ptr noundef nonnull align 8 dereferenceable(32) %23) #14
  %25 = call i32 (ptr, ptr, ...) @fprintf(ptr noundef %22, ptr noundef @.str.234, ptr noundef %24) #14
  %26 = load ptr, ptr %7, align 8
  %27 = load ptr, ptr %10, align 8
  %28 = call noundef ptr @_ZNKSt7__cxx1112basic_stringIcSt11char_traitsIcESaIcEE5c_strEv(ptr noundef nonnull align 8 dereferenceable(32) %27) #14
  %29 = call i32 (ptr, ptr, ...) @fprintf(ptr noundef %26, ptr noundef @.str.235, ptr noundef %28) #14
  %30 = load ptr, ptr %7, align 8
  %31 = load ptr, ptr %11, align 8
  %32 = call noundef ptr @_ZNKSt7__cxx1112basic_stringIcSt11char_traitsIcESaIcEE5c_strEv(ptr noundef nonnull align 8 dereferenceable(32) %31) #14
  %33 = call i32 (ptr, ptr, ...) @fprintf(ptr noundef %30, ptr noundef @.str.236, ptr noundef %32) #14
  %34 = load i8, ptr %12, align 1
  %35 = trunc i8 %34 to i1
  br i1 %35, label %36, label %39

36:                                               ; preds = %6
  %37 = load ptr, ptr %7, align 8
  %38 = call i32 (ptr, ptr, ...) @fprintf(ptr noundef %37, ptr noundef @.str.237) #14
  br label %42

39:                                               ; preds = %6
  %40 = load ptr, ptr %7, align 8
  %41 = call i32 (ptr, ptr, ...) @fprintf(ptr noundef %40, ptr noundef @.str.238) #14
  br label %42

42:                                               ; preds = %39, %36
  ret void
}