; Function Attrs: mustprogress nounwind uwtable
define internal fastcc void @_ZL16write_xpm_headerP8_IO_FILERKNSt7__cxx1112basic_stringIcSt11char_traitsIcESaIcEEES8_S8_S8_b(ptr nocapture noundef %0, ptr noundef nonnull align 8 dereferenceable(32) %1, ptr noundef nonnull align 8 dereferenceable(32) %2, ptr noundef nonnull align 8 dereferenceable(32) %3, ptr noundef nonnull align 8 dereferenceable(32) %4, i1 noundef zeroext %5) unnamed_addr #6 {
  %7 = tail call i64 @fwrite(ptr nonnull @.str.231, i64 10, i64 1, ptr %0)
  %8 = tail call i64 @fwrite(ptr nonnull @.str.232, i64 70, i64 1, ptr %0)
  %9 = tail call noundef ptr @_ZNKSt7__cxx1112basic_stringIcSt11char_traitsIcESaIcEE5c_strEv(ptr noundef nonnull align 8 dereferenceable(32) %1) #24
  %10 = tail call i32 (ptr, ptr, ...) @fprintf(ptr noundef %0, ptr noundef nonnull @.str.233, ptr noundef %9) #24
  %11 = tail call noundef ptr @_ZNKSt7__cxx1112basic_stringIcSt11char_traitsIcESaIcEE5c_strEv(ptr noundef nonnull align 8 dereferenceable(32) %2) #24
  %12 = tail call i32 (ptr, ptr, ...) @fprintf(ptr noundef %0, ptr noundef nonnull @.str.234, ptr noundef %11) #24
  %13 = tail call noundef ptr @_ZNKSt7__cxx1112basic_stringIcSt11char_traitsIcESaIcEE5c_strEv(ptr noundef nonnull align 8 dereferenceable(32) %3) #24
  %14 = tail call i32 (ptr, ptr, ...) @fprintf(ptr noundef %0, ptr noundef nonnull @.str.235, ptr noundef %13) #24
  %15 = tail call noundef ptr @_ZNKSt7__cxx1112basic_stringIcSt11char_traitsIcESaIcEE5c_strEv(ptr noundef nonnull align 8 dereferenceable(32) %4) #24
  %16 = tail call i32 (ptr, ptr, ...) @fprintf(ptr noundef %0, ptr noundef nonnull @.str.236, ptr noundef %15) #24
  br i1 %5, label %17, label %19

17:                                               ; preds = %6
  %18 = tail call i64 @fwrite(ptr nonnull @.str.237, i64 26, i64 1, ptr %0)
  br label %21

19:                                               ; preds = %6
  %20 = tail call i64 @fwrite(ptr nonnull @.str.238, i64 28, i64 1, ptr %0)
  br label %21

21:                                               ; preds = %19, %17
  ret void
}